target datalayout = "e-m:e-p270:32:32-p271:32:32-p272:64:64-i64:64-i128:128-f80:128-n8:16:32:64-S128"
target triple = "x86_64-pc-linux-gnu"

%struct.PaAlsaStream = type { %struct.PaUtilStreamRepresentation, %struct.PaUtilCpuLoadMeasurer, %struct.PaUtilBufferProcessor, %struct.PaUnixThread, i64, i64, i32, i32, i32, i32, ptr, i32, i32, i32, i32, %struct.PaUnixMutex, i32, double, double, %struct.PaAlsaStreamComponent, %struct.PaAlsaStreamComponent }
%struct.PaUtilStreamRepresentation = type { i64, ptr, ptr, ptr, ptr, ptr, %struct.PaStreamInfo }
%struct.PaStreamInfo = type { i32, double, double, double }
%struct.PaUtilCpuLoadMeasurer = type { double, double, double }
%struct.PaUtilBufferProcessor = type { i64, i64, i32, i32, i32, i32, i64, i32, i32, i32, i32, ptr, ptr, i32, i32, i32, i32, ptr, ptr, i64, i64, ptr, ptr, i64, ptr, ptr, i64, ptr, i64, i32, [2 x i64], [2 x ptr], i32, [2 x i64], [2 x ptr], %struct.PaUtilTriangularDitherGenerator, double, ptr, ptr }
%struct.PaUtilTriangularDitherGenerator = type { i32, i32, i32 }
%struct.PaUnixThread = type { i64, i32, i32, i32, %struct.PaUnixMutex, %union.pthread_cond_t, i32, i32 }
%union.pthread_cond_t = type { %struct.__pthread_cond_s }
%struct.__pthread_cond_s = type { %union.__atomic_wide_counter, %union.__atomic_wide_counter, [2 x i32], [2 x i32], i32, i32, [2 x i32] }
%union.__atomic_wide_counter = type { i64 }
%struct.PaUnixMutex = type { %union.pthread_mutex_t }
%union.pthread_mutex_t = type { %struct.__pthread_mutex_s }
%struct.__pthread_mutex_s = type { i32, i32, i32, i32, i32, i16, i16, %struct.__pthread_internal_list }
%struct.__pthread_internal_list = type { ptr, ptr }
%struct.PaAlsaStreamComponent = type { i64, i32, i32, i32, i32, i32, ptr, i32, i32, i32, i32, ptr, i64, i64, i32, i32, i32, ptr, i64, i32, ptr }

@alsa_snd_pcm_nonblock = internal global ptr null, align 8
@alsa_snd_pcm_drain = internal global ptr null, align 8
@alsa_snd_pcm_drop = internal global ptr null, align 8
@alsa_snd_strerror = internal global ptr null, align 8
@paUnixMainThread = external global i64, align 8
@.str.172 = private unnamed_addr constant [210 x i8] c"Expression 'alsa_snd_pcm_drop( stream->playback.pcm )' failed in 'generated/home/dtcxzyw/WorkSpace/Projects/compilers/llvm-opt-benchmark/bench/portaudio/portaudio/src/hostapi/alsa/pa_linux_alsa.c', line: 3063\0A\00", align 1
@.str.173 = private unnamed_addr constant [209 x i8] c"Expression 'alsa_snd_pcm_drop( stream->capture.pcm )' failed in 'generated/home/dtcxzyw/WorkSpace/Projects/compilers/llvm-opt-benchmark/bench/portaudio/portaudio/src/hostapi/alsa/pa_linux_alsa.c', line: 3067\0A\00", align 1
@.str.174 = private unnamed_addr constant [217 x i8] c"Expression 'alsa_snd_pcm_nonblock( stream->playback.pcm, 0 )' failed in 'generated/home/dtcxzyw/WorkSpace/Projects/compilers/llvm-opt-benchmark/bench/portaudio/portaudio/src/hostapi/alsa/pa_linux_alsa.c', line: 3076\0A\00", align 1

; Function Attrs: inlinehint nounwind willreturn memory(none) uwtable
define available_externally i32 @pthread_equal(i64 noundef %0, i64 noundef %1) #8 {
  %3 = alloca i64, align 8
  %4 = alloca i64, align 8
  store i64 %0, ptr %3, align 8, !tbaa !37
  store i64 %1, ptr %4, align 8, !tbaa !37
  %5 = load i64, ptr %3, align 8, !tbaa !37
  %6 = load i64, ptr %4, align 8, !tbaa !37
  %7 = icmp eq i64 %5, %6
  %8 = zext i1 %7 to i32
  ret i32 %8
}

; Function Attrs: nounwind uwtable
define internal i32 @AlsaStop(ptr noundef %0, i32 noundef %1) #0 {
  %3 = alloca i32, align 4
  %4 = alloca ptr, align 8
  %5 = alloca i32, align 4
  %6 = alloca i32, align 4
  %7 = alloca i32, align 4
  %8 = alloca i32, align 4
  %9 = alloca i32, align 4
  %10 = alloca i32, align 4
  store ptr %0, ptr %4, align 8, !tbaa !38
  store i32 %1, ptr %5, align 4, !tbaa !8
  call void @llvm.lifetime.start.p0(i64 4, ptr %6) #17
  store i32 0, ptr %6, align 4, !tbaa !8
  store i32 1, ptr %5, align 4, !tbaa !8
  %11 = load i32, ptr %5, align 4, !tbaa !8
  %12 = icmp ne i32 %11, 0
  br i1 %12, label %13, label %93

13:                                               ; preds = %2
  %14 = load ptr, ptr %4, align 8, !tbaa !38
  %15 = getelementptr inbounds nuw %struct.PaAlsaStream, ptr %14, i32 0, i32 20
  %16 = getelementptr inbounds nuw %struct.PaAlsaStreamComponent, ptr %15, i32 0, i32 11
  %17 = load ptr, ptr %16, align 8, !tbaa !101
  %18 = icmp ne ptr %17, null
  br i1 %18, label %19, label %50

19:                                               ; preds = %13
  br label %20

20:                                               ; preds = %19
  call void @llvm.lifetime.start.p0(i64 4, ptr %7) #17
  %21 = load ptr, ptr @alsa_snd_pcm_drop, align 8, !tbaa !32
  %22 = load ptr, ptr %4, align 8, !tbaa !38
  %23 = getelementptr inbounds nuw %struct.PaAlsaStream, ptr %22, i32 0, i32 20
  %24 = getelementptr inbounds nuw %struct.PaAlsaStreamComponent, ptr %23, i32 0, i32 11
  %25 = load ptr, ptr %24, align 8, !tbaa !101
  %26 = call i32 %21(ptr noundef %25)
  store i32 %26, ptr %7, align 4, !tbaa !8
  %27 = icmp slt i32 %26, 0
  %28 = zext i1 %27 to i32
  %29 = sext i32 %28 to i64
  %30 = call i64 @llvm.expect.i64(i64 %29, i64 0)
  %31 = icmp ne i64 %30, 0
  br i1 %31, label %32, label %44

32:                                               ; preds = %20
  %33 = call i64 @pthread_self() #20
  %34 = load i64, ptr @paUnixMainThread, align 8, !tbaa !37
  %35 = call i32 @pthread_equal(i64 noundef %33, i64 noundef %34) #20
  %36 = icmp ne i32 %35, 0
  br i1 %36, label %37, label %43

37:                                               ; preds = %32
  %38 = load i32, ptr %7, align 4, !tbaa !8
  %39 = sext i32 %38 to i64
  %40 = load ptr, ptr @alsa_snd_strerror, align 8, !tbaa !32
  %41 = load i32, ptr %7, align 4, !tbaa !8
  %42 = call ptr %40(i32 noundef %41)
  call void @PaUtil_SetLastHostErrorInfo(i32 noundef 8, i64 noundef %39, ptr noundef %42)
  br label %43

43:                                               ; preds = %37, %32
  call void (ptr, ...) @PaUtil_DebugPrint(ptr noundef @.str.172)
  store i32 -9999, ptr %6, align 4, !tbaa !8
  store i32 4, ptr %8, align 4
  br label %45

44:                                               ; preds = %20
  store i32 0, ptr %8, align 4
  br label %45

45:                                               ; preds = %43, %44
  call void @llvm.lifetime.end.p0(i64 4, ptr %7) #17
  %46 = load i32, ptr %8, align 4
  switch i32 %46, label %165 [
    i32 0, label %47
    i32 4, label %164
  ]

47:                                               ; preds = %45
  br label %48

48:                                               ; preds = %47
  br label %49

49:                                               ; preds = %48
  br label %50

50:                                               ; preds = %49, %13
  %51 = load ptr, ptr %4, align 8, !tbaa !38
  %52 = getelementptr inbounds nuw %struct.PaAlsaStream, ptr %51, i32 0, i32 19
  %53 = getelementptr inbounds nuw %struct.PaAlsaStreamComponent, ptr %52, i32 0, i32 11
  %54 = load ptr, ptr %53, align 8, !tbaa !100
  %55 = icmp ne ptr %54, null
  br i1 %55, label %56, label %92

56:                                               ; preds = %50
  %57 = load ptr, ptr %4, align 8, !tbaa !38
  %58 = getelementptr inbounds nuw %struct.PaAlsaStream, ptr %57, i32 0, i32 8
  %59 = load i32, ptr %58, align 8, !tbaa !172
  %60 = icmp ne i32 %59, 0
  br i1 %60, label %92, label %61

61:                                               ; preds = %56
  br label %62

62:                                               ; preds = %61
  call void @llvm.lifetime.start.p0(i64 4, ptr %9) #17
  %63 = load ptr, ptr @alsa_snd_pcm_drop, align 8, !tbaa !32
  %64 = load ptr, ptr %4, align 8, !tbaa !38
  %65 = getelementptr inbounds nuw %struct.PaAlsaStream, ptr %64, i32 0, i32 19
  %66 = getelementptr inbounds nuw %struct.PaAlsaStreamComponent, ptr %65, i32 0, i32 11
  %67 = load ptr, ptr %66, align 8, !tbaa !100
  %68 = call i32 %63(ptr noundef %67)
  store i32 %68, ptr %9, align 4, !tbaa !8
  %69 = icmp slt i32 %68, 0
  %70 = zext i1 %69 to i32
  %71 = sext i32 %70 to i64
  %72 = call i64 @llvm.expect.i64(i64 %71, i64 0)
  %73 = icmp ne i64 %72, 0
  br i1 %73, label %74, label %86

74:                                               ; preds = %62
  %75 = call i64 @pthread_self() #20
  %76 = load i64, ptr @paUnixMainThread, align 8, !tbaa !37
  %77 = call i32 @pthread_equal(i64 noundef %75, i64 noundef %76) #20
  %78 = icmp ne i32 %77, 0
  br i1 %78, label %79, label %85

79:                                               ; preds = %74
  %80 = load i32, ptr %9, align 4, !tbaa !8
  %81 = sext i32 %80 to i64
  %82 = load ptr, ptr @alsa_snd_strerror, align 8, !tbaa !32
  %83 = load i32, ptr %9, align 4, !tbaa !8
  %84 = call ptr %82(i32 noundef %83)
  call void @PaUtil_SetLastHostErrorInfo(i32 noundef 8, i64 noundef %81, ptr noundef %84)
  br label %85

85:                                               ; preds = %79, %74
  call void (ptr, ...) @PaUtil_DebugPrint(ptr noundef @.str.173)
  store i32 -9999, ptr %6, align 4, !tbaa !8
  store i32 4, ptr %8, align 4
  br label %87

86:                                               ; preds = %62
  store i32 0, ptr %8, align 4
  br label %87

87:                                               ; preds = %85, %86
  call void @llvm.lifetime.end.p0(i64 4, ptr %9) #17
  %88 = load i32, ptr %8, align 4
  switch i32 %88, label %165 [
    i32 0, label %89
    i32 4, label %164
  ]

89:                                               ; preds = %87
  br label %90

90:                                               ; preds = %89
  br label %91

91:                                               ; preds = %90
  br label %92

92:                                               ; preds = %91, %56, %50
  br label %161

93:                                               ; preds = %2
  %94 = load ptr, ptr %4, align 8, !tbaa !38
  %95 = getelementptr inbounds nuw %struct.PaAlsaStream, ptr %94, i32 0, i32 20
  %96 = getelementptr inbounds nuw %struct.PaAlsaStreamComponent, ptr %95, i32 0, i32 11
  %97 = load ptr, ptr %96, align 8, !tbaa !101
  %98 = icmp ne ptr %97, null
  br i1 %98, label %99, label %139

99:                                               ; preds = %93
  br label %100

100:                                              ; preds = %99
  call void @llvm.lifetime.start.p0(i64 4, ptr %10) #17
  %101 = load ptr, ptr @alsa_snd_pcm_nonblock, align 8, !tbaa !32
  %102 = load ptr, ptr %4, align 8, !tbaa !38
  %103 = getelementptr inbounds nuw %struct.PaAlsaStream, ptr %102, i32 0, i32 20
  %104 = getelementptr inbounds nuw %struct.PaAlsaStreamComponent, ptr %103, i32 0, i32 11
  %105 = load ptr, ptr %104, align 8, !tbaa !101
  %106 = call i32 %101(ptr noundef %105, i32 noundef 0)
  store i32 %106, ptr %10, align 4, !tbaa !8
  %107 = icmp slt i32 %106, 0
  %108 = zext i1 %107 to i32
  %109 = sext i32 %108 to i64
  %110 = call i64 @llvm.expect.i64(i64 %109, i64 0)
  %111 = icmp ne i64 %110, 0
  br i1 %111, label %112, label %124

112:                                              ; preds = %100
  %113 = call i64 @pthread_self() #20
  %114 = load i64, ptr @paUnixMainThread, align 8, !tbaa !37
  %115 = call i32 @pthread_equal(i64 noundef %113, i64 noundef %114) #20
  %116 = icmp ne i32 %115, 0
  br i1 %116, label %117, label %123

117:                                              ; preds = %112
  %118 = load i32, ptr %10, align 4, !tbaa !8
  %119 = sext i32 %118 to i64
  %120 = load ptr, ptr @alsa_snd_strerror, align 8, !tbaa !32
  %121 = load i32, ptr %10, align 4, !tbaa !8
  %122 = call ptr %120(i32 noundef %121)
  call void @PaUtil_SetLastHostErrorInfo(i32 noundef 8, i64 noundef %119, ptr noundef %122)
  br label %123

123:                                              ; preds = %117, %112
  call void (ptr, ...) @PaUtil_DebugPrint(ptr noundef @.str.174)
  store i32 -9999, ptr %6, align 4, !tbaa !8
  store i32 4, ptr %8, align 4
  br label %125

124:                                              ; preds = %100
  store i32 0, ptr %8, align 4
  br label %125

125:                                              ; preds = %123, %124
  call void @llvm.lifetime.end.p0(i64 4, ptr %10) #17
  %126 = load i32, ptr %8, align 4
  switch i32 %126, label %165 [
    i32 0, label %127
    i32 4, label %164
  ]

127:                                              ; preds = %125
  br label %128

128:                                              ; preds = %127
  br label %129

129:                                              ; preds = %128
  %130 = load ptr, ptr @alsa_snd_pcm_drain, align 8, !tbaa !32
  %131 = load ptr, ptr %4, align 8, !tbaa !38
  %132 = getelementptr inbounds nuw %struct.PaAlsaStream, ptr %131, i32 0, i32 20
  %133 = getelementptr inbounds nuw %struct.PaAlsaStreamComponent, ptr %132, i32 0, i32 11
  %134 = load ptr, ptr %133, align 8, !tbaa !101
  %135 = call i32 %130(ptr noundef %134)
  %136 = icmp slt i32 %135, 0
  br i1 %136, label %137, label %138

137:                                              ; preds = %129
  br label %138

138:                                              ; preds = %137, %129
  br label %139

139:                                              ; preds = %138, %93
  %140 = load ptr, ptr %4, align 8, !tbaa !38
  %141 = getelementptr inbounds nuw %struct.PaAlsaStream, ptr %140, i32 0, i32 19
  %142 = getelementptr inbounds nuw %struct.PaAlsaStreamComponent, ptr %141, i32 0, i32 11
  %143 = load ptr, ptr %142, align 8, !tbaa !100
  %144 = icmp ne ptr %143, null
  br i1 %144, label %145, label %160

145:                                              ; preds = %139
  %146 = load ptr, ptr %4, align 8, !tbaa !38
  %147 = getelementptr inbounds nuw %struct.PaAlsaStream, ptr %146, i32 0, i32 8
  %148 = load i32, ptr %147, align 8, !tbaa !172
  %149 = icmp ne i32 %148, 0
  br i1 %149, label %160, label %150

150:                                              ; preds = %145
  %151 = load ptr, ptr @alsa_snd_pcm_drain, align 8, !tbaa !32
  %152 = load ptr, ptr %4, align 8, !tbaa !38
  %153 = getelementptr inbounds nuw %struct.PaAlsaStream, ptr %152, i32 0, i32 19
  %154 = getelementptr inbounds nuw %struct.PaAlsaStreamComponent, ptr %153, i32 0, i32 11
  %155 = load ptr, ptr %154, align 8, !tbaa !100
  %156 = call i32 %151(ptr noundef %155)
  %157 = icmp slt i32 %156, 0
  br i1 %157, label %158, label %159

158:                                              ; preds = %150
  br label %159

159:                                              ; preds = %158, %150
  br label %160

160:                                              ; preds = %159, %145, %139
  br label %161

161:                                              ; preds = %160, %92
  br label %162

162:                                              ; preds = %164, %161
  %163 = load i32, ptr %6, align 4, !tbaa !8
  store i32 %163, ptr %3, align 4
  store i32 1, ptr %8, align 4
  br label %165

164:                                              ; preds = %125, %87, %45
  br label %162

165:                                              ; preds = %162, %125, %87, %45
  call void @llvm.lifetime.end.p0(i64 4, ptr %6) #17
  %166 = load i32, ptr %3, align 4
  ret i32 %166
}