; Function Attrs: nounwind uwtable
define internal fastcc range(i32 -9999, 1) i32 @AlsaStop(ptr noundef readonly captures(none) %0) unnamed_addr #2 {
  %2 = getelementptr inbounds nuw i8, ptr %0, i64 832
  %3 = load ptr, ptr %2, align 8, !tbaa !130
  %.not = icmp eq ptr %3, null
  br i1 %.not, label %.thread, label %4

4:                                                ; preds = %1
  %5 = tail call i32 @snd_pcm_drop(ptr noundef nonnull %3) #25, !callees !273
  %6 = icmp slt i32 %5, 0
  br i1 %6, label %7, label %.thread, !prof !9

7:                                                ; preds = %4
  %8 = tail call i64 @pthread_self() #28
  %9 = load i64, ptr @paUnixMainThread, align 8, !tbaa !108
  %.not42 = icmp eq i64 %8, %9
  br i1 %.not42, label %.sink.split.sink.split, label %.sink.split

.thread:                                          ; preds = %4, %1
  %10 = getelementptr inbounds nuw i8, ptr %0, i64 704
  %11 = load ptr, ptr %10, align 8, !tbaa !129
  %.not34 = icmp eq ptr %11, null
  br i1 %.not34, label %23, label %12

12:                                               ; preds = %.thread
  %13 = getelementptr inbounds nuw i8, ptr %0, i64 552
  %14 = load i32, ptr %13, align 8, !tbaa !203
  %.not35 = icmp eq i32 %14, 0
  br i1 %.not35, label %15, label %23

15:                                               ; preds = %12
  %16 = tail call i32 @snd_pcm_drop(ptr noundef nonnull %11) #25, !callees !273
  %17 = icmp slt i32 %16, 0
  br i1 %17, label %18, label %23, !prof !9

18:                                               ; preds = %15
  %19 = tail call i64 @pthread_self() #28
  %20 = load i64, ptr @paUnixMainThread, align 8, !tbaa !108
  %.not43 = icmp eq i64 %19, %20
  br i1 %.not43, label %.sink.split.sink.split, label %.sink.split

.sink.split.sink.split:                           ; preds = %18, %7
  %.sink46 = phi i32 [ %5, %7 ], [ %16, %18 ]
  %.str.172.sink.ph = phi ptr [ @.str.172, %7 ], [ @.str.173, %18 ]
  %21 = sext i32 %.sink46 to i64
  %22 = tail call ptr @snd_strerror(i32 noundef %.sink46) #25
  tail call void @PaUtil_SetLastHostErrorInfo(i32 noundef 8, i64 noundef %21, ptr noundef %22) #25
  br label %.sink.split

.sink.split:                                      ; preds = %.sink.split.sink.split, %18, %7
  %.str.172.sink = phi ptr [ @.str.172, %7 ], [ @.str.173, %18 ], [ %.str.172.sink.ph, %.sink.split.sink.split ]
  tail call void (ptr, ...) @PaUtil_DebugPrint(ptr noundef nonnull %.str.172.sink) #25
  br label %23

23:                                               ; preds = %.sink.split, %.thread, %12, %15
  %.5 = phi i32 [ 0, %12 ], [ 0, %.thread ], [ 0, %15 ], [ -9999, %.sink.split ]
  ret i32 %.5
}